target datalayout = "e-m:e-p270:32:32-p271:32:32-p272:64:64-i64:64-i128:128-f80:128-n8:16:32:64-S128"
target triple = "x86_64-pc-linux-gnu"

%struct.tok_t = type { ptr, ptr, %struct.strview_t }
%struct.strview_t = type { ptr, i64 }

@.str.24 = private unnamed_addr constant [7 x i8] c"dashed\00", align 1
@.str.25 = private unnamed_addr constant [7 x i8] c"dotted\00", align 1
@.str.57 = private unnamed_addr constant [4 x i8] c" \09,\00", align 1
@.str.58 = private unnamed_addr constant [6 x i8] c"invis\00", align 1
@.str.59 = private unnamed_addr constant [7 x i8] c"filled\00", align 1
@.str.60 = private unnamed_addr constant [6 x i8] c"solid\00", align 1
@.str.61 = private unnamed_addr constant [5 x i8] c"bold\00", align 1

; Function Attrs: inlinehint nounwind uwtable
define internal i32 @strview_cmp(ptr %0, i64 %1, ptr %2, i64 %3) #5 {
  %5 = alloca i32, align 4
  %6 = alloca %struct.strview_t, align 8
  %7 = alloca %struct.strview_t, align 8
  %8 = alloca i64, align 8
  %9 = alloca i32, align 4
  %10 = alloca i32, align 4
  %11 = getelementptr inbounds nuw { ptr, i64 }, ptr %6, i32 0, i32 0
  store ptr %0, ptr %11, align 8
  %12 = getelementptr inbounds nuw { ptr, i64 }, ptr %6, i32 0, i32 1
  store i64 %1, ptr %12, align 8
  %13 = getelementptr inbounds nuw { ptr, i64 }, ptr %7, i32 0, i32 0
  store ptr %2, ptr %13, align 8
  %14 = getelementptr inbounds nuw { ptr, i64 }, ptr %7, i32 0, i32 1
  store i64 %3, ptr %14, align 8
  call void @llvm.lifetime.start.p0(i64 8, ptr %8) #11
  %15 = getelementptr inbounds nuw %struct.strview_t, ptr %6, i32 0, i32 1
  %16 = load i64, ptr %15, align 8, !tbaa !79
  %17 = getelementptr inbounds nuw %struct.strview_t, ptr %7, i32 0, i32 1
  %18 = load i64, ptr %17, align 8, !tbaa !79
  %19 = icmp ugt i64 %16, %18
  br i1 %19, label %20, label %23

20:                                               ; preds = %4
  %21 = getelementptr inbounds nuw %struct.strview_t, ptr %7, i32 0, i32 1
  %22 = load i64, ptr %21, align 8, !tbaa !79
  br label %26

23:                                               ; preds = %4
  %24 = getelementptr inbounds nuw %struct.strview_t, ptr %6, i32 0, i32 1
  %25 = load i64, ptr %24, align 8, !tbaa !79
  br label %26

26:                                               ; preds = %23, %20
  %27 = phi i64 [ %22, %20 ], [ %25, %23 ]
  store i64 %27, ptr %8, align 8, !tbaa !13
  call void @llvm.lifetime.start.p0(i64 4, ptr %9) #11
  %28 = getelementptr inbounds nuw %struct.strview_t, ptr %6, i32 0, i32 0
  %29 = load ptr, ptr %28, align 8, !tbaa !78
  %30 = getelementptr inbounds nuw %struct.strview_t, ptr %7, i32 0, i32 0
  %31 = load ptr, ptr %30, align 8, !tbaa !78
  %32 = load i64, ptr %8, align 8, !tbaa !13
  %33 = call i32 @strncmp(ptr noundef %29, ptr noundef %31, i64 noundef %32) #14
  store i32 %33, ptr %9, align 4, !tbaa !4
  %34 = load i32, ptr %9, align 4, !tbaa !4
  %35 = icmp ne i32 %34, 0
  br i1 %35, label %36, label %38

36:                                               ; preds = %26
  %37 = load i32, ptr %9, align 4, !tbaa !4
  store i32 %37, ptr %5, align 4
  store i32 1, ptr %10, align 4
  br label %53

38:                                               ; preds = %26
  %39 = getelementptr inbounds nuw %struct.strview_t, ptr %6, i32 0, i32 1
  %40 = load i64, ptr %39, align 8, !tbaa !79
  %41 = getelementptr inbounds nuw %struct.strview_t, ptr %7, i32 0, i32 1
  %42 = load i64, ptr %41, align 8, !tbaa !79
  %43 = icmp ugt i64 %40, %42
  br i1 %43, label %44, label %45

44:                                               ; preds = %38
  store i32 1, ptr %5, align 4
  store i32 1, ptr %10, align 4
  br label %53

45:                                               ; preds = %38
  %46 = getelementptr inbounds nuw %struct.strview_t, ptr %6, i32 0, i32 1
  %47 = load i64, ptr %46, align 8, !tbaa !79
  %48 = getelementptr inbounds nuw %struct.strview_t, ptr %7, i32 0, i32 1
  %49 = load i64, ptr %48, align 8, !tbaa !79
  %50 = icmp ult i64 %47, %49
  br i1 %50, label %51, label %52

51:                                               ; preds = %45
  store i32 -1, ptr %5, align 4
  store i32 1, ptr %10, align 4
  br label %53

52:                                               ; preds = %45
  store i32 0, ptr %5, align 4
  store i32 1, ptr %10, align 4
  br label %53

53:                                               ; preds = %52, %51, %44, %36
  call void @llvm.lifetime.end.p0(i64 4, ptr %9) #11
  call void @llvm.lifetime.end.p0(i64 8, ptr %8) #11
  %54 = load i32, ptr %5, align 4
  ret i32 %54
}

; Function Attrs: inlinehint nounwind uwtable
define internal zeroext i1 @strview_eq(ptr %0, i64 %1, ptr %2, i64 %3) #5 {
  %5 = alloca %struct.strview_t, align 8
  %6 = alloca %struct.strview_t, align 8
  %7 = getelementptr inbounds nuw { ptr, i64 }, ptr %5, i32 0, i32 0
  store ptr %0, ptr %7, align 8
  %8 = getelementptr inbounds nuw { ptr, i64 }, ptr %5, i32 0, i32 1
  store i64 %1, ptr %8, align 8
  %9 = getelementptr inbounds nuw { ptr, i64 }, ptr %6, i32 0, i32 0
  store ptr %2, ptr %9, align 8
  %10 = getelementptr inbounds nuw { ptr, i64 }, ptr %6, i32 0, i32 1
  store i64 %3, ptr %10, align 8
  %11 = getelementptr inbounds nuw { ptr, i64 }, ptr %5, i32 0, i32 0
  %12 = load ptr, ptr %11, align 8
  %13 = getelementptr inbounds nuw { ptr, i64 }, ptr %5, i32 0, i32 1
  %14 = load i64, ptr %13, align 8
  %15 = getelementptr inbounds nuw { ptr, i64 }, ptr %6, i32 0, i32 0
  %16 = load ptr, ptr %15, align 8
  %17 = getelementptr inbounds nuw { ptr, i64 }, ptr %6, i32 0, i32 1
  %18 = load i64, ptr %17, align 8
  %19 = call i32 @strview_cmp(ptr %12, i64 %14, ptr %16, i64 %18)
  %20 = icmp eq i32 %19, 0
  ret i1 %20
}

; Function Attrs: inlinehint nounwind uwtable
define internal { ptr, i64 } @strview(ptr noundef %0, i8 noundef signext %1) #5 {
  %3 = alloca %struct.strview_t, align 8
  %4 = alloca ptr, align 8
  %5 = alloca i8, align 1
  %6 = alloca ptr, align 8
  %7 = alloca i32, align 4
  store ptr %0, ptr %4, align 8, !tbaa !19
  store i8 %1, ptr %5, align 1, !tbaa !33
  call void @llvm.lifetime.start.p0(i64 8, ptr %6) #11
  %8 = load ptr, ptr %4, align 8, !tbaa !19
  %9 = load i8, ptr %5, align 1, !tbaa !33
  %10 = sext i8 %9 to i32
  %11 = call ptr @strchr(ptr noundef %8, i32 noundef %10) #14
  store ptr %11, ptr %6, align 8, !tbaa !19
  %12 = load ptr, ptr %6, align 8, !tbaa !19
  %13 = icmp ne ptr %12, null
  br i1 %13, label %14, label %23

14:                                               ; preds = %2
  %15 = getelementptr inbounds nuw %struct.strview_t, ptr %3, i32 0, i32 0
  %16 = load ptr, ptr %4, align 8, !tbaa !19
  store ptr %16, ptr %15, align 8, !tbaa !78
  %17 = getelementptr inbounds nuw %struct.strview_t, ptr %3, i32 0, i32 1
  %18 = load ptr, ptr %6, align 8, !tbaa !19
  %19 = load ptr, ptr %4, align 8, !tbaa !19
  %20 = ptrtoint ptr %18 to i64
  %21 = ptrtoint ptr %19 to i64
  %22 = sub i64 %20, %21
  store i64 %22, ptr %17, align 8, !tbaa !79
  store i32 1, ptr %7, align 4
  br label %29

23:                                               ; preds = %2
  %24 = getelementptr inbounds nuw %struct.strview_t, ptr %3, i32 0, i32 0
  %25 = load ptr, ptr %4, align 8, !tbaa !19
  store ptr %25, ptr %24, align 8, !tbaa !78
  %26 = getelementptr inbounds nuw %struct.strview_t, ptr %3, i32 0, i32 1
  %27 = load ptr, ptr %4, align 8, !tbaa !19
  %28 = call i64 @strlen(ptr noundef %27) #14
  store i64 %28, ptr %26, align 8, !tbaa !79
  store i32 1, ptr %7, align 4
  br label %29

29:                                               ; preds = %23, %14
  call void @llvm.lifetime.end.p0(i64 8, ptr %6) #11
  %30 = load { ptr, i64 }, ptr %3, align 8
  ret { ptr, i64 } %30
}

; Function Attrs: inlinehint nounwind uwtable
define internal void @tok_next(ptr noundef %0) #5 {
  %2 = alloca ptr, align 8
  %3 = alloca ptr, align 8
  %4 = alloca %struct.strview_t, align 8
  %5 = alloca i32, align 4
  %6 = alloca i64, align 8
  %7 = alloca %struct.strview_t, align 8
  store ptr %0, ptr %2, align 8, !tbaa !52
  call void @llvm.lifetime.start.p0(i64 8, ptr %3) #11
  %8 = load ptr, ptr %2, align 8, !tbaa !52
  %9 = getelementptr inbounds nuw %struct.tok_t, ptr %8, i32 0, i32 2
  %10 = getelementptr inbounds nuw %struct.strview_t, ptr %9, i32 0, i32 0
  %11 = load ptr, ptr %10, align 8, !tbaa !81
  %12 = load ptr, ptr %2, align 8, !tbaa !52
  %13 = getelementptr inbounds nuw %struct.tok_t, ptr %12, i32 0, i32 2
  %14 = getelementptr inbounds nuw %struct.strview_t, ptr %13, i32 0, i32 1
  %15 = load i64, ptr %14, align 8, !tbaa !82
  %16 = getelementptr inbounds nuw i8, ptr %11, i64 %15
  store ptr %16, ptr %3, align 8, !tbaa !19
  %17 = load ptr, ptr %3, align 8, !tbaa !19
  %18 = load ptr, ptr %2, align 8, !tbaa !52
  %19 = getelementptr inbounds nuw %struct.tok_t, ptr %18, i32 0, i32 0
  %20 = load ptr, ptr %19, align 8, !tbaa !74
  %21 = load ptr, ptr %2, align 8, !tbaa !52
  %22 = getelementptr inbounds nuw %struct.tok_t, ptr %21, i32 0, i32 0
  %23 = load ptr, ptr %22, align 8, !tbaa !74
  %24 = call i64 @strlen(ptr noundef %23) #14
  %25 = getelementptr inbounds nuw i8, ptr %20, i64 %24
  %26 = icmp eq ptr %17, %25
  br i1 %26, label %27, label %32

27:                                               ; preds = %1
  %28 = load ptr, ptr %2, align 8, !tbaa !52
  %29 = getelementptr inbounds nuw %struct.tok_t, ptr %28, i32 0, i32 2
  %30 = getelementptr inbounds nuw %struct.strview_t, ptr %4, i32 0, i32 0
  store ptr null, ptr %30, align 8, !tbaa !78
  %31 = getelementptr inbounds nuw %struct.strview_t, ptr %4, i32 0, i32 1
  store i64 0, ptr %31, align 8, !tbaa !79
  call void @llvm.memcpy.p0.p0.i64(ptr align 8 %29, ptr align 8 %4, i64 16, i1 false), !tbaa.struct !80
  store i32 1, ptr %5, align 4
  br label %51

32:                                               ; preds = %1
  %33 = load ptr, ptr %3, align 8, !tbaa !19
  %34 = load ptr, ptr %2, align 8, !tbaa !52
  %35 = getelementptr inbounds nuw %struct.tok_t, ptr %34, i32 0, i32 1
  %36 = load ptr, ptr %35, align 8, !tbaa !77
  %37 = call i64 @strspn(ptr noundef %33, ptr noundef %36) #14
  %38 = load ptr, ptr %3, align 8, !tbaa !19
  %39 = getelementptr inbounds nuw i8, ptr %38, i64 %37
  store ptr %39, ptr %3, align 8, !tbaa !19
  call void @llvm.lifetime.start.p0(i64 8, ptr %6) #11
  %40 = load ptr, ptr %3, align 8, !tbaa !19
  %41 = load ptr, ptr %2, align 8, !tbaa !52
  %42 = getelementptr inbounds nuw %struct.tok_t, ptr %41, i32 0, i32 1
  %43 = load ptr, ptr %42, align 8, !tbaa !77
  %44 = call i64 @strcspn(ptr noundef %40, ptr noundef %43) #14
  store i64 %44, ptr %6, align 8, !tbaa !13
  %45 = load ptr, ptr %2, align 8, !tbaa !52
  %46 = getelementptr inbounds nuw %struct.tok_t, ptr %45, i32 0, i32 2
  %47 = getelementptr inbounds nuw %struct.strview_t, ptr %7, i32 0, i32 0
  %48 = load ptr, ptr %3, align 8, !tbaa !19
  store ptr %48, ptr %47, align 8, !tbaa !78
  %49 = getelementptr inbounds nuw %struct.strview_t, ptr %7, i32 0, i32 1
  %50 = load i64, ptr %6, align 8, !tbaa !13
  store i64 %50, ptr %49, align 8, !tbaa !79
  call void @llvm.memcpy.p0.p0.i64(ptr align 8 %46, ptr align 8 %7, i64 16, i1 false), !tbaa.struct !80
  call void @llvm.lifetime.end.p0(i64 8, ptr %6) #11
  store i32 0, ptr %5, align 4
  br label %51

51:                                               ; preds = %32, %27
  call void @llvm.lifetime.end.p0(i64 8, ptr %3) #11
  %52 = load i32, ptr %5, align 4
  switch i32 %52, label %54 [
    i32 0, label %53
    i32 1, label %53
  ]

53:                                               ; preds = %51, %51
  ret void

54:                                               ; preds = %51
  unreachable
}

; Function Attrs: inlinehint nounwind uwtable
define internal zeroext i1 @strview_str_eq(ptr %0, i64 %1, ptr noundef %2) #5 {
  %4 = alloca %struct.strview_t, align 8
  %5 = alloca ptr, align 8
  %6 = alloca %struct.strview_t, align 8
  %7 = getelementptr inbounds nuw { ptr, i64 }, ptr %4, i32 0, i32 0
  store ptr %0, ptr %7, align 8
  %8 = getelementptr inbounds nuw { ptr, i64 }, ptr %4, i32 0, i32 1
  store i64 %1, ptr %8, align 8
  store ptr %2, ptr %5, align 8, !tbaa !19
  %9 = load ptr, ptr %5, align 8, !tbaa !19
  %10 = call { ptr, i64 } @strview(ptr noundef %9, i8 noundef signext 0)
  %11 = getelementptr inbounds nuw { ptr, i64 }, ptr %6, i32 0, i32 0
  %12 = extractvalue { ptr, i64 } %10, 0
  store ptr %12, ptr %11, align 8
  %13 = getelementptr inbounds nuw { ptr, i64 }, ptr %6, i32 0, i32 1
  %14 = extractvalue { ptr, i64 } %10, 1
  store i64 %14, ptr %13, align 8
  %15 = getelementptr inbounds nuw { ptr, i64 }, ptr %4, i32 0, i32 0
  %16 = load ptr, ptr %15, align 8
  %17 = getelementptr inbounds nuw { ptr, i64 }, ptr %4, i32 0, i32 1
  %18 = load i64, ptr %17, align 8
  %19 = getelementptr inbounds nuw { ptr, i64 }, ptr %6, i32 0, i32 0
  %20 = load ptr, ptr %19, align 8
  %21 = getelementptr inbounds nuw { ptr, i64 }, ptr %6, i32 0, i32 1
  %22 = load i64, ptr %21, align 8
  %23 = call zeroext i1 @strview_eq(ptr %16, i64 %18, ptr %20, i64 %22)
  ret i1 %23
}

; Function Attrs: inlinehint nounwind uwtable
define internal { ptr, i64 } @tok_get(ptr noundef %0) #5 {
  %2 = alloca %struct.strview_t, align 8
  %3 = alloca ptr, align 8
  store ptr %0, ptr %3, align 8, !tbaa !52
  %4 = load ptr, ptr %3, align 8, !tbaa !52
  %5 = getelementptr inbounds nuw %struct.tok_t, ptr %4, i32 0, i32 2
  call void @llvm.memcpy.p0.p0.i64(ptr align 8 %2, ptr align 8 %5, i64 16, i1 false), !tbaa.struct !80
  %6 = load { ptr, i64 }, ptr %2, align 8
  ret { ptr, i64 } %6
}

; Function Attrs: inlinehint nounwind uwtable
define internal zeroext i1 @tok_end(ptr noundef %0) #5 {
  %2 = alloca ptr, align 8
  store ptr %0, ptr %2, align 8, !tbaa !52
  %3 = load ptr, ptr %2, align 8, !tbaa !52
  %4 = getelementptr inbounds nuw %struct.tok_t, ptr %3, i32 0, i32 2
  %5 = getelementptr inbounds nuw %struct.strview_t, ptr %4, i32 0, i32 0
  %6 = load ptr, ptr %5, align 8, !tbaa !81
  %7 = icmp eq ptr %6, null
  ret i1 %7
}

; Function Attrs: inlinehint nounwind uwtable
define internal void @tok(ptr dead_on_unwind noalias writable sret(%struct.tok_t) align 8 %0, ptr noundef %1, ptr noundef %2) #5 {
  %4 = alloca ptr, align 8
  %5 = alloca ptr, align 8
  %6 = alloca i64, align 8
  %7 = alloca %struct.strview_t, align 8
  store ptr %1, ptr %4, align 8, !tbaa !19
  store ptr %2, ptr %5, align 8, !tbaa !19
  %8 = getelementptr inbounds nuw %struct.tok_t, ptr %0, i32 0, i32 0
  %9 = load ptr, ptr %4, align 8, !tbaa !19
  store ptr %9, ptr %8, align 8, !tbaa !74
  %10 = getelementptr inbounds nuw %struct.tok_t, ptr %0, i32 0, i32 1
  %11 = load ptr, ptr %5, align 8, !tbaa !19
  store ptr %11, ptr %10, align 8, !tbaa !77
  %12 = getelementptr inbounds nuw %struct.tok_t, ptr %0, i32 0, i32 2
  call void @llvm.memset.p0.i64(ptr align 8 %12, i8 0, i64 16, i1 false)
  call void @llvm.lifetime.start.p0(i64 8, ptr %6) #11
  %13 = load ptr, ptr %4, align 8, !tbaa !19
  %14 = load ptr, ptr %5, align 8, !tbaa !19
  %15 = call i64 @strcspn(ptr noundef %13, ptr noundef %14) #14
  store i64 %15, ptr %6, align 8, !tbaa !13
  %16 = getelementptr inbounds nuw %struct.tok_t, ptr %0, i32 0, i32 2
  %17 = getelementptr inbounds nuw %struct.strview_t, ptr %7, i32 0, i32 0
  %18 = load ptr, ptr %4, align 8, !tbaa !19
  store ptr %18, ptr %17, align 8, !tbaa !78
  %19 = getelementptr inbounds nuw %struct.strview_t, ptr %7, i32 0, i32 1
  %20 = load i64, ptr %6, align 8, !tbaa !13
  store i64 %20, ptr %19, align 8, !tbaa !79
  call void @llvm.memcpy.p0.p0.i64(ptr align 8 %16, ptr align 8 %7, i64 16, i1 false), !tbaa.struct !80
  call void @llvm.lifetime.end.p0(i64 8, ptr %6) #11
  ret void
}

; Function Attrs: nounwind uwtable
define internal i32 @parseStyle(ptr noundef %0) #0 {
  %2 = alloca ptr, align 8
  %3 = alloca i32, align 4
  %4 = alloca ptr, align 8
  %5 = alloca %struct.tok_t, align 8
  %6 = alloca %struct.strview_t, align 8
  store ptr %0, ptr %2, align 8, !tbaa !19
  call void @llvm.lifetime.start.p0(i64 4, ptr %3) #11
  store i32 0, ptr %3, align 4, !tbaa !4
  call void @llvm.lifetime.start.p0(i64 8, ptr %4) #11
  store ptr @.str.57, ptr %4, align 8, !tbaa !19
  call void @llvm.lifetime.start.p0(i64 32, ptr %5) #11
  %7 = load ptr, ptr %2, align 8, !tbaa !19
  %8 = load ptr, ptr %4, align 8, !tbaa !19
  call void @tok(ptr dead_on_unwind writable sret(%struct.tok_t) align 8 %5, ptr noundef %7, ptr noundef %8)
  br label %9

9:                                                ; preds = %78, %1
  %10 = call zeroext i1 @tok_end(ptr noundef %5)
  %11 = xor i1 %10, true
  br i1 %11, label %13, label %12

12:                                               ; preds = %9
  call void @llvm.lifetime.end.p0(i64 32, ptr %5) #11
  br label %79

13:                                               ; preds = %9
  call void @llvm.lifetime.start.p0(i64 16, ptr %6) #11
  %14 = call { ptr, i64 } @tok_get(ptr noundef %5)
  %15 = getelementptr inbounds nuw { ptr, i64 }, ptr %6, i32 0, i32 0
  %16 = extractvalue { ptr, i64 } %14, 0
  store ptr %16, ptr %15, align 8
  %17 = getelementptr inbounds nuw { ptr, i64 }, ptr %6, i32 0, i32 1
  %18 = extractvalue { ptr, i64 } %14, 1
  store i64 %18, ptr %17, align 8
  %19 = getelementptr inbounds nuw { ptr, i64 }, ptr %6, i32 0, i32 0
  %20 = load ptr, ptr %19, align 8
  %21 = getelementptr inbounds nuw { ptr, i64 }, ptr %6, i32 0, i32 1
  %22 = load i64, ptr %21, align 8
  %23 = call zeroext i1 @strview_str_eq(ptr %20, i64 %22, ptr noundef @.str.58)
  br i1 %23, label %24, label %27

24:                                               ; preds = %13
  %25 = load i32, ptr %3, align 4, !tbaa !4
  %26 = or i32 %25, 8
  store i32 %26, ptr %3, align 4, !tbaa !4
  br label %77

27:                                               ; preds = %13
  %28 = getelementptr inbounds nuw { ptr, i64 }, ptr %6, i32 0, i32 0
  %29 = load ptr, ptr %28, align 8
  %30 = getelementptr inbounds nuw { ptr, i64 }, ptr %6, i32 0, i32 1
  %31 = load i64, ptr %30, align 8
  %32 = call zeroext i1 @strview_str_eq(ptr %29, i64 %31, ptr noundef @.str.59)
  br i1 %32, label %33, label %36

33:                                               ; preds = %27
  %34 = load i32, ptr %3, align 4, !tbaa !4
  %35 = or i32 %34, 16
  store i32 %35, ptr %3, align 4, !tbaa !4
  br label %76

36:                                               ; preds = %27
  %37 = getelementptr inbounds nuw { ptr, i64 }, ptr %6, i32 0, i32 0
  %38 = load ptr, ptr %37, align 8
  %39 = getelementptr inbounds nuw { ptr, i64 }, ptr %6, i32 0, i32 1
  %40 = load i64, ptr %39, align 8
  %41 = call zeroext i1 @strview_str_eq(ptr %38, i64 %40, ptr noundef @.str.24)
  br i1 %41, label %42, label %45

42:                                               ; preds = %36
  %43 = load i32, ptr %3, align 4, !tbaa !4
  %44 = or i32 %43, 64
  store i32 %44, ptr %3, align 4, !tbaa !4
  br label %75

45:                                               ; preds = %36
  %46 = getelementptr inbounds nuw { ptr, i64 }, ptr %6, i32 0, i32 0
  %47 = load ptr, ptr %46, align 8
  %48 = getelementptr inbounds nuw { ptr, i64 }, ptr %6, i32 0, i32 1
  %49 = load i64, ptr %48, align 8
  %50 = call zeroext i1 @strview_str_eq(ptr %47, i64 %49, ptr noundef @.str.25)
  br i1 %50, label %51, label %54

51:                                               ; preds = %45
  %52 = load i32, ptr %3, align 4, !tbaa !4
  %53 = or i32 %52, 128
  store i32 %53, ptr %3, align 4, !tbaa !4
  br label %74

54:                                               ; preds = %45
  %55 = getelementptr inbounds nuw { ptr, i64 }, ptr %6, i32 0, i32 0
  %56 = load ptr, ptr %55, align 8
  %57 = getelementptr inbounds nuw { ptr, i64 }, ptr %6, i32 0, i32 1
  %58 = load i64, ptr %57, align 8
  %59 = call zeroext i1 @strview_str_eq(ptr %56, i64 %58, ptr noundef @.str.60)
  br i1 %59, label %60, label %63

60:                                               ; preds = %54
  %61 = load i32, ptr %3, align 4, !tbaa !4
  %62 = or i32 %61, 32
  store i32 %62, ptr %3, align 4, !tbaa !4
  br label %73

63:                                               ; preds = %54
  %64 = getelementptr inbounds nuw { ptr, i64 }, ptr %6, i32 0, i32 0
  %65 = load ptr, ptr %64, align 8
  %66 = getelementptr inbounds nuw { ptr, i64 }, ptr %6, i32 0, i32 1
  %67 = load i64, ptr %66, align 8
  %68 = call zeroext i1 @strview_str_eq(ptr %65, i64 %67, ptr noundef @.str.61)
  br i1 %68, label %69, label %72

69:                                               ; preds = %63
  %70 = load i32, ptr %3, align 4, !tbaa !4
  %71 = or i32 %70, 256
  store i32 %71, ptr %3, align 4, !tbaa !4
  br label %72

72:                                               ; preds = %69, %63
  br label %73

73:                                               ; preds = %72, %60
  br label %74

74:                                               ; preds = %73, %51
  br label %75

75:                                               ; preds = %74, %42
  br label %76

76:                                               ; preds = %75, %33
  br label %77

77:                                               ; preds = %76, %24
  call void @llvm.lifetime.end.p0(i64 16, ptr %6) #11
  br label %78

78:                                               ; preds = %77
  call void @tok_next(ptr noundef %5)
  br label %9, !llvm.loop !73

79:                                               ; preds = %12
  %80 = load i32, ptr %3, align 4, !tbaa !4
  call void @llvm.lifetime.end.p0(i64 8, ptr %4) #11
  call void @llvm.lifetime.end.p0(i64 4, ptr %3) #11
  ret i32 %80
}