; Function Attrs: nofree nounwind memory(argmem: read) uwtable
define internal fastcc range(i32 0, 512) i32 @parseStyle(ptr noundef readonly captures(address) %0) unnamed_addr #10 {
  %2 = icmp eq ptr %0, null
  br i1 %2, label %._crit_edge, label %.lr.ph

.lr.ph:                                           ; preds = %1
  %3 = tail call i64 @strcspn(ptr noundef nonnull %0, ptr noundef nonnull @.str.57) #15, !noalias !50
  %4 = tail call i64 @strlen(ptr noundef nonnull dereferenceable(1) %0) #15
  %5 = getelementptr inbounds nuw i8, ptr %0, i64 %4
  br label %6

._crit_edge:                                      ; preds = %35, %1
  %.0.lcssa = phi i32 [ 0, %1 ], [ %.1, %35 ]
  ret i32 %.0.lcssa

6:                                                ; preds = %tok_next.exit, %.lr.ph
  %.038 = phi i32 [ 0, %.lr.ph ], [ %.1, %tok_next.exit ]
  %.sroa.11.037 = phi i64 [ %3, %.lr.ph ], [ %40, %tok_next.exit ]
  %.sroa.6.036 = phi ptr [ %0, %.lr.ph ], [ %39, %tok_next.exit ]
  %7 = tail call i64 @llvm.umin.i64(i64 %.sroa.11.037, i64 5)
  %8 = tail call i32 @strncmp(ptr noundef nonnull readonly %.sroa.6.036, ptr noundef nonnull readonly @.str.58, i64 noundef %7) #15
  %.not.i.i.i = icmp eq i32 %8, 0
  %9 = icmp eq i64 %.sroa.11.037, 5
  %spec.select.i.i = and i1 %9, %.not.i.i.i
  br i1 %spec.select.i.i, label %10, label %12

10:                                               ; preds = %6
  %11 = or i32 %.038, 8
  br label %35

12:                                               ; preds = %6
  %13 = tail call i64 @llvm.umin.i64(i64 %.sroa.11.037, i64 6)
  %14 = tail call i32 @strncmp(ptr noundef nonnull readonly %.sroa.6.036, ptr noundef nonnull readonly @.str.59, i64 noundef %13) #15
  %.not.i.i.i21 = icmp eq i32 %14, 0
  %15 = icmp eq i64 %.sroa.11.037, 6
  %spec.select.i.i22 = and i1 %15, %.not.i.i.i21
  br i1 %spec.select.i.i22, label %16, label %18

16:                                               ; preds = %12
  %17 = or i32 %.038, 16
  br label %35

18:                                               ; preds = %12
  %19 = tail call i32 @strncmp(ptr noundef nonnull readonly %.sroa.6.036, ptr noundef nonnull readonly @.str.24, i64 noundef %13) #15
  %.not.i.i.i24 = icmp eq i32 %19, 0
  %spec.select.i.i25 = and i1 %15, %.not.i.i.i24
  br i1 %spec.select.i.i25, label %20, label %22

20:                                               ; preds = %18
  %21 = or i32 %.038, 64
  br label %35

22:                                               ; preds = %18
  %23 = tail call i32 @strncmp(ptr noundef nonnull readonly %.sroa.6.036, ptr noundef nonnull readonly @.str.25, i64 noundef %13) #15
  %.not.i.i.i27 = icmp eq i32 %23, 0
  %spec.select.i.i28 = and i1 %15, %.not.i.i.i27
  br i1 %spec.select.i.i28, label %24, label %26

24:                                               ; preds = %22
  %25 = or i32 %.038, 128
  br label %35

26:                                               ; preds = %22
  %27 = tail call i32 @strncmp(ptr noundef nonnull readonly %.sroa.6.036, ptr noundef nonnull readonly @.str.60, i64 noundef %7) #15
  %.not.i.i.i30 = icmp eq i32 %27, 0
  %spec.select.i.i31 = and i1 %9, %.not.i.i.i30
  br i1 %spec.select.i.i31, label %28, label %30

28:                                               ; preds = %26
  %29 = or i32 %.038, 32
  br label %35

30:                                               ; preds = %26
  %31 = tail call i64 @llvm.umin.i64(i64 %.sroa.11.037, i64 4)
  %32 = tail call i32 @strncmp(ptr noundef nonnull readonly %.sroa.6.036, ptr noundef nonnull readonly @.str.61, i64 noundef %31) #15
  %.not.i.i.i33 = icmp eq i32 %32, 0
  %33 = icmp eq i64 %.sroa.11.037, 4
  %spec.select.i.i34 = and i1 %33, %.not.i.i.i33
  %34 = or i32 %.038, 256
  %spec.select = select i1 %spec.select.i.i34, i32 %34, i32 %.038
  br label %35

35:                                               ; preds = %30, %16, %24, %28, %20, %10
  %.1 = phi i32 [ %11, %10 ], [ %17, %16 ], [ %21, %20 ], [ %25, %24 ], [ %29, %28 ], [ %spec.select, %30 ]
  %36 = getelementptr inbounds nuw i8, ptr %.sroa.6.036, i64 %.sroa.11.037
  %37 = icmp eq ptr %36, %5
  br i1 %37, label %._crit_edge, label %tok_next.exit

tok_next.exit:                                    ; preds = %35
  %38 = tail call i64 @strspn(ptr noundef nonnull %36, ptr noundef nonnull @.str.57) #15
  %39 = getelementptr inbounds nuw i8, ptr %36, i64 %38
  %40 = tail call i64 @strcspn(ptr noundef nonnull %39, ptr noundef nonnull @.str.57) #15
  br label %6, !llvm.loop !53
}